Certificate:
    Data:
        Version: 3 (0x2)
        Serial Number:
            4d:70:3f:85:b8:3b:89:5b:e5:22:d2:14:b7:ed:a0:27
        Signature Algorithm: sha256WithRSAEncryption
        Issuer: CN=server-ca
        Validity
            Not Before: Feb  3 12:20:34 2025 GMT
            Not After : May  9 12:20:34 2027 GMT
        Subject: CN=client1.domain.tld
        Subject Public Key Info:
            Public Key Algorithm: rsaEncryption
                Public-Key: (2048 bit)
                Modulus:
                    00:9d:99:76:76:bf:4e:e0:83:0b:30:1f:19:5e:a3:
                    d3:49:54:a8:76:cc:02:fa:5e:0a:0f:3a:bf:c8:4a:
                    48:d1:30:c7:d0:87:95:56:ec:fe:20:55:00:56:95:
                    8c:9b:f3:f6:65:e8:d2:da:82:4c:c9:39:2a:01:5d:
                    1d:56:d6:bd:8e:da:79:a5:a8:93:56:ac:57:a4:44:
                    6d:d5:0c:0c:bc:1c:9a:1b:52:20:49:77:af:96:f9:
                    38:fe:84:0a:34:27:de:10:6d:0f:70:b6:09:86:41:
                    fd:85:03:e7:c3:47:e4:72:df:7f:ec:08:df:85:7e:
                    4e:6d:fa:f3:4c:10:0c:f6:7a:99:3f:38:74:a9:da:
                    6d:63:e2:8e:44:d3:27:66:b0:3c:c5:26:fa:be:9d:
                    18:72:2a:3a:9b:19:e8:98:39:8f:e7:b3:07:00:6a:
                    4e:98:15:e7:be:f5:4e:51:be:e8:7c:cc:5b:85:8a:
                    61:a4:6c:e5:1b:b0:b0:69:5c:25:d5:57:00:66:06:
                    1c:48:3c:f1:f3:98:d5:d8:14:ba:c7:65:97:8c:e3:
                    c1:1f:4e:32:49:2b:36:04:b5:7e:8a:c1:38:26:4d:
                    89:5a:0a:8d:af:dd:3b:75:4f:9a:2a:51:4e:97:85:
                    43:6b:0f:a8:24:26:d5:e4:6a:75:71:d7:2a:d9:36:
                    c9:77
                Exponent: 65537 (0x10001)
        X509v3 extensions:
            X509v3 Basic Constraints: 
                CA:FALSE
            X509v3 Subject Key Identifier: 
                04:62:C8:EA:A7:73:D9:D1:E6:58:E8:94:72:7A:B3:06:AD:6F:99:63
            X509v3 Authority Key Identifier: 
                keyid:C0:B4:DC:4B:A4:C1:06:0A:F7:71:6D:8F:81:CF:A0:33:7D:F6:93:50
                DirName:/CN=server-ca
                serial:0F:6D:DC:B1:47:D2:B1:D5:0F:03:5C:FD:DD:72:37:E1:C9:1F:DE:7D
            X509v3 Extended Key Usage: 
                TLS Web Client Authentication
            X509v3 Key Usage: 
                Digital Signature
    Signature Algorithm: sha256WithRSAEncryption
    Signature Value:
        92:33:94:c5:6b:03:c4:e2:fb:38:2e:14:64:b9:c0:6d:bd:f7:
        90:12:88:17:15:86:68:40:15:e1:ab:ec:56:0a:ba:0d:fe:43:
        bf:e6:11:fb:0a:21:c3:2e:57:60:e1:ec:25:f9:84:e7:a2:92:
        c8:9a:e4:73:50:79:b5:f8:b0:e9:41:f1:87:5c:8a:98:75:e6:
        69:a4:98:65:50:0f:f6:26:0a:78:3e:60:57:ca:99:80:f8:ac:
        cb:d2:ec:c3:a2:e4:07:ef:eb:bd:a1:ab:ff:27:c2:a2:d5:17:
        73:4f:e6:8f:fa:39:e0:59:a2:dc:b8:6e:f5:01:be:92:51:0a:
        34:78:63:49:9b:5d:37:da:6f:a6:6e:26:87:b9:6f:a7:00:7e:
        b7:4d:85:b5:25:f6:0a:41:2d:ec:68:8f:92:24:ce:ef:2d:09:
        aa:76:04:d8:62:9b:26:fe:19:09:20:59:11:2a:75:9a:73:95:
        2b:b0:3b:65:e3:8a:cd:40:fc:32:82:64:6d:fa:a3:93:71:86:
        6b:b0:71:3d:45:9f:13:f9:9a:42:78:0c:01:82:14:87:92:16:
        72:7d:4b:1a:01:eb:ea:77:08:51:ed:83:3b:17:02:ff:1f:9a:
        aa:5c:da:eb:ff:7b:0c:65:91:d7:0a:3c:ba:2a:13:32:06:8e:
        b0:20:ce:fd
-----BEGIN CERTIFICATE-----
MIIDXDCCAkSgAwIBAgIQTXA/hbg7iVvlItIUt+2gJzANBgkqhkiG9w0BAQsFADAU
MRIwEAYDVQQDDAlzZXJ2ZXItY2EwHhcNMjUwMjAzMTIyMDM0WhcNMjcwNTA5MTIy
MDM0WjAdMRswGQYDVQQDDBJjbGllbnQxLmRvbWFpbi50bGQwggEiMA0GCSqGSIb3
DQEBAQUAA4IBDwAwggEKAoIBAQCdmXZ2v07ggwswHxleo9NJVKh2zAL6XgoPOr/I
SkjRMMfQh5VW7P4gVQBWlYyb8/Zl6NLagkzJOSoBXR1W1r2O2nmlqJNWrFekRG3V
DAy8HJobUiBJd6+W+Tj+hAo0J94QbQ9wtgmGQf2FA+fDR+Ry33/sCN+Ffk5t+vNM
EAz2epk/OHSp2m1j4o5E0ydmsDzFJvq+nRhyKjqbGeiYOY/nswcAak6YFee+9U5R
vuh8zFuFimGkbOUbsLBpXCXVVwBmBhxIPPHzmNXYFLrHZZeM48EfTjJJKzYEtX6K
wTgmTYlaCo2v3Tt1T5oqUU6XhUNrD6gkJtXkanVx1yrZNsl3AgMBAAGjgaAwgZ0w
CQYDVR0TBAIwADAdBgNVHQ4EFgQUBGLI6qdz2dHmWOiUcnqzBq1vmWMwTwYDVR0j
BEgwRoAUwLTcS6TBBgr3cW2Pgc+gM332k1ChGKQWMBQxEjAQBgNVBAMMCXNlcnZl
ci1jYYIUD23csUfSsdUPA1z93XI34ckf3n0wEwYDVR0lBAwwCgYIKwYBBQUHAwIw
CwYDVR0PBAQDAgeAMA0GCSqGSIb3DQEBCwUAA4IBAQCSM5TFawPE4vs4LhRkucBt
vfeQEogXFYZoQBXhq+xWCroN/kO/5hH7CiHDLldg4ewl+YTnopLImuRzUHm1+LDp
QfGHXIqYdeZppJhlUA/2Jgp4PmBXypmA+KzL0uzDouQH7+u9oav/J8Ki1RdzT+aP
+jngWaLcuG71Ab6SUQo0eGNJm1032m+mbiaHuW+nAH63TYW1JfYKQS3saI+SJM7v
LQmqdgTYYpsm/hkJIFkRKnWac5UrsDtl44rNQPwygmRt+qOTcYZrsHE9RZ8T+ZpC
eAwBghSHkhZyfUsaAevqdwhR7YM7FwL/H5qqXNrr/3sMZZHXCjy6KhMyBo6wIM79
-----END CERTIFICATE-----
