Certificate:
    Data:
        Version: 3 (0x2)
        Serial Number:
            3e:da:73:7c:dc:0c:3a:1e:ee:2e:7d:66:c7:4e:0b:4d
        Signature Algorithm: sha256WithRSAEncryption
        Issuer: CN=serverca
        Validity
            Not Before: Jan 21 10:13:18 2025 GMT
            Not After : Apr 26 10:13:18 2027 GMT
        Subject: CN=client1.domain.tld
        Subject Public Key Info:
            Public Key Algorithm: rsaEncryption
                Public-Key: (2048 bit)
                Modulus:
                    00:9b:3a:c3:9c:60:6a:fc:70:59:4e:11:c1:04:c5:
                    fe:e1:8d:f2:44:5f:ad:8b:a4:f3:a8:8c:64:50:f4:
                    74:f6:ec:c1:1f:db:1d:1a:2d:3a:7d:05:ac:a4:5c:
                    19:17:4b:77:06:12:de:e7:7c:e6:f1:3a:1b:1b:c6:
                    cb:8c:55:02:af:fc:65:b1:31:c6:db:9f:43:20:e1:
                    7c:df:c3:67:c2:af:ea:0b:9d:fc:4d:af:84:35:25:
                    e9:cc:6a:6c:be:21:d5:cb:8f:05:71:e9:37:95:25:
                    6f:e9:cc:c3:f2:4e:ee:53:9a:02:bf:10:4d:09:2a:
                    3a:f5:2c:42:e7:e1:19:49:2e:7d:73:55:76:8a:fc:
                    0a:69:00:18:de:bd:63:96:84:d3:c6:ee:77:2e:22:
                    da:53:d7:5b:31:a2:42:11:2d:e5:57:8b:46:4d:fc:
                    27:b7:a0:9a:b1:2c:c3:84:ae:d5:af:4e:19:d8:9b:
                    11:4b:b7:a3:88:d5:b9:0a:74:80:d8:71:4c:ea:33:
                    f0:95:54:a9:c9:d3:f3:fd:ac:52:bf:dd:76:24:3b:
                    97:5c:2d:43:2f:8a:f7:4f:04:9b:91:a6:01:6e:b5:
                    ea:22:03:c0:a6:48:33:84:39:0b:d3:da:88:ef:eb:
                    1b:62:54:30:32:97:ba:6a:5e:10:54:9b:61:fd:ad:
                    c6:65
                Exponent: 65537 (0x10001)
        X509v3 extensions:
            X509v3 Basic Constraints: 
                CA:FALSE
            X509v3 Subject Key Identifier: 
                20:32:D5:7E:05:15:9D:45:D2:9F:AE:53:39:46:26:F7:C1:D9:CF:8A
            X509v3 Authority Key Identifier: 
                keyid:F1:D0:31:5E:B5:74:60:C9:3A:EE:EA:A1:F1:DC:7D:AF:25:0F:4A:7B
                DirName:/CN=serverca
                serial:4B:C3:B2:98:D5:5A:25:26:98:D1:B7:34:FD:D6:D6:6F:7E:E9:21:EF
            X509v3 Extended Key Usage: 
                TLS Web Client Authentication
            X509v3 Key Usage: 
                Digital Signature
    Signature Algorithm: sha256WithRSAEncryption
    Signature Value:
        1b:b0:dd:78:3d:40:18:7d:1a:e4:73:b3:26:dc:45:54:98:39:
        77:27:99:e9:b4:17:bc:05:67:1d:bb:7d:55:ef:f7:0b:df:5d:
        e2:a4:0d:95:68:d0:85:df:4c:01:ee:32:4a:c4:7e:cf:68:0b:
        f0:40:87:b4:5b:90:35:d1:4e:6b:27:22:f3:57:da:7f:b6:b8:
        c5:d3:51:0b:4c:0a:5f:f9:6f:51:3c:6b:9b:d4:27:4d:d1:d6:
        10:bd:80:29:d8:ba:ce:8b:23:ff:d3:71:ac:ec:11:d2:51:33:
        5e:a1:d6:e9:d8:49:ef:75:44:3f:dd:b1:98:9e:34:07:1b:31:
        5a:19:bd:1d:75:fa:08:d2:84:4e:0c:8d:78:41:89:5a:6f:86:
        b0:31:17:9b:2d:e8:2b:8b:0e:98:3a:33:c5:0d:7c:f1:b4:9b:
        18:ff:44:2f:ec:3f:2f:84:15:0a:f6:4b:99:1f:e0:fb:31:53:
        c6:ac:1e:c0:af:8d:f5:e5:08:c8:cd:d1:11:5d:50:02:a6:1e:
        d3:01:46:a5:ee:bf:f8:67:74:bf:50:f0:15:64:4b:f4:91:b4:
        3d:ce:75:a3:d0:86:81:90:b2:eb:fc:57:4b:5b:e8:d3:eb:a5:
        98:de:08:6c:c7:25:ec:99:55:3b:4f:d9:5c:2a:08:b8:13:59:
        e3:24:81:c3
-----BEGIN CERTIFICATE-----
MIIDWjCCAkKgAwIBAgIQPtpzfNwMOh7uLn1mx04LTTANBgkqhkiG9w0BAQsFADAT
MREwDwYDVQQDDAhzZXJ2ZXJjYTAeFw0yNTAxMjExMDEzMThaFw0yNzA0MjYxMDEz
MThaMB0xGzAZBgNVBAMMEmNsaWVudDEuZG9tYWluLnRsZDCCASIwDQYJKoZIhvcN
AQEBBQADggEPADCCAQoCggEBAJs6w5xgavxwWU4RwQTF/uGN8kRfrYuk86iMZFD0
dPbswR/bHRotOn0FrKRcGRdLdwYS3ud85vE6GxvGy4xVAq/8ZbExxtufQyDhfN/D
Z8Kv6gud/E2vhDUl6cxqbL4h1cuPBXHpN5Ulb+nMw/JO7lOaAr8QTQkqOvUsQufh
GUkufXNVdor8CmkAGN69Y5aE08budy4i2lPXWzGiQhEt5VeLRk38J7egmrEsw4Su
1a9OGdibEUu3o4jVuQp0gNhxTOoz8JVUqcnT8/2sUr/ddiQ7l1wtQy+K908Em5Gm
AW616iIDwKZIM4Q5C9PaiO/rG2JUMDKXumpeEFSbYf2txmUCAwEAAaOBnzCBnDAJ
BgNVHRMEAjAAMB0GA1UdDgQWBBQgMtV+BRWdRdKfrlM5Rib3wdnPijBOBgNVHSME
RzBFgBTx0DFetXRgyTru6qHx3H2vJQ9Ke6EXpBUwEzERMA8GA1UEAwwIc2VydmVy
Y2GCFEvDspjVWiUmmNG3NP3W1m9+6SHvMBMGA1UdJQQMMAoGCCsGAQUFBwMCMAsG
A1UdDwQEAwIHgDANBgkqhkiG9w0BAQsFAAOCAQEAG7DdeD1AGH0a5HOzJtxFVJg5
dyeZ6bQXvAVnHbt9Ve/3C99d4qQNlWjQhd9MAe4ySsR+z2gL8ECHtFuQNdFOayci
81faf7a4xdNRC0wKX/lvUTxrm9QnTdHWEL2AKdi6zosj/9NxrOwR0lEzXqHW6dhJ
73VEP92xmJ40BxsxWhm9HXX6CNKETgyNeEGJWm+GsDEXmy3oK4sOmDozxQ188bSb
GP9EL+w/L4QVCvZLmR/g+zFTxqwewK+N9eUIyM3REV1QAqYe0wFGpe6/+Gd0v1Dw
FWRL9JG0Pc51o9CGgZCy6/xXS1vo0+ulmN4IbMcl7JlVO0/ZXCoIuBNZ4ySBww==
-----END CERTIFICATE-----
